target datalayout = "e-m:e-p270:32:32-p271:32:32-p272:64:64-i64:64-i128:128-f80:128-n8:16:32:64-S128"
target triple = "x86_64-pc-linux-gnu"

; Function Attrs: mustprogress uwtable
define i32 @ucptrie_internalGetRange_77(ptr noundef %0, ptr noundef %1, i32 noundef %2, i32 noundef %3, i32 noundef %4, ptr noundef %5, ptr noundef %6, ptr noundef %7) #0 {
  %9 = alloca i32, align 4
  %10 = alloca ptr, align 8
  %11 = alloca ptr, align 8
  %12 = alloca i32, align 4
  %13 = alloca i32, align 4
  %14 = alloca i32, align 4
  %15 = alloca ptr, align 8
  %16 = alloca ptr, align 8
  %17 = alloca ptr, align 8
  %18 = alloca i32, align 4
  %19 = alloca i32, align 4
  %20 = alloca i32, align 4
  %21 = alloca i32, align 4
  %22 = alloca i32, align 4
  %23 = alloca i32, align 4
  store ptr %0, ptr %10, align 8, !tbaa !9
  store ptr %1, ptr %11, align 8, !tbaa !9
  store i32 %2, ptr %12, align 4, !tbaa !11
  store i32 %3, ptr %13, align 4, !tbaa !48
  store i32 %4, ptr %14, align 4, !tbaa !11
  store ptr %5, ptr %15, align 8, !tbaa !9
  store ptr %6, ptr %16, align 8, !tbaa !9
  store ptr %7, ptr %17, align 8, !tbaa !13
  %24 = load i32, ptr %13, align 4, !tbaa !48
  %25 = icmp eq i32 %24, 0
  br i1 %25, label %26, label %34

26:                                               ; preds = %8
  %27 = load ptr, ptr %10, align 8, !tbaa !9
  %28 = load ptr, ptr %11, align 8, !tbaa !9
  %29 = load i32, ptr %12, align 4, !tbaa !11
  %30 = load ptr, ptr %15, align 8, !tbaa !9
  %31 = load ptr, ptr %16, align 8, !tbaa !9
  %32 = load ptr, ptr %17, align 8, !tbaa !13
  %33 = call noundef i32 %27(ptr noundef %28, i32 noundef %29, ptr noundef %30, ptr noundef %31, ptr noundef %32)
  store i32 %33, ptr %9, align 4
  br label %99

34:                                               ; preds = %8
  call void @llvm.lifetime.start.p0(i64 4, ptr %18) #9
  %35 = load ptr, ptr %17, align 8, !tbaa !13
  %36 = icmp eq ptr %35, null
  br i1 %36, label %37, label %38

37:                                               ; preds = %34
  store ptr %18, ptr %17, align 8, !tbaa !13
  br label %38

38:                                               ; preds = %37, %34
  call void @llvm.lifetime.start.p0(i64 4, ptr %19) #9
  %39 = load i32, ptr %13, align 4, !tbaa !48
  %40 = icmp eq i32 %39, 2
  %41 = select i1 %40, i32 57343, i32 56319
  store i32 %41, ptr %19, align 4, !tbaa !11
  call void @llvm.lifetime.start.p0(i64 4, ptr %20) #9
  %42 = load ptr, ptr %10, align 8, !tbaa !9
  %43 = load ptr, ptr %11, align 8, !tbaa !9
  %44 = load i32, ptr %12, align 4, !tbaa !11
  %45 = load ptr, ptr %15, align 8, !tbaa !9
  %46 = load ptr, ptr %16, align 8, !tbaa !9
  %47 = load ptr, ptr %17, align 8, !tbaa !13
  %48 = call noundef i32 %42(ptr noundef %43, i32 noundef %44, ptr noundef %45, ptr noundef %46, ptr noundef %47)
  store i32 %48, ptr %20, align 4, !tbaa !11
  %49 = load i32, ptr %20, align 4, !tbaa !11
  %50 = icmp slt i32 %49, 55295
  br i1 %50, label %55, label %51

51:                                               ; preds = %38
  %52 = load i32, ptr %12, align 4, !tbaa !11
  %53 = load i32, ptr %19, align 4, !tbaa !11
  %54 = icmp sgt i32 %52, %53
  br i1 %54, label %55, label %57

55:                                               ; preds = %51, %38
  %56 = load i32, ptr %20, align 4, !tbaa !11
  store i32 %56, ptr %9, align 4
  store i32 1, ptr %21, align 4
  br label %98

57:                                               ; preds = %51
  %58 = load ptr, ptr %17, align 8, !tbaa !13
  %59 = load i32, ptr %58, align 4, !tbaa !11
  %60 = load i32, ptr %14, align 4, !tbaa !11
  %61 = icmp eq i32 %59, %60
  br i1 %61, label %62, label %69

62:                                               ; preds = %57
  %63 = load i32, ptr %20, align 4, !tbaa !11
  %64 = load i32, ptr %19, align 4, !tbaa !11
  %65 = icmp sge i32 %63, %64
  br i1 %65, label %66, label %68

66:                                               ; preds = %62
  %67 = load i32, ptr %20, align 4, !tbaa !11
  store i32 %67, ptr %9, align 4
  store i32 1, ptr %21, align 4
  br label %98

68:                                               ; preds = %62
  br label %82

69:                                               ; preds = %57
  %70 = load i32, ptr %12, align 4, !tbaa !11
  %71 = icmp sle i32 %70, 55295
  br i1 %71, label %72, label %73

72:                                               ; preds = %69
  store i32 55295, ptr %9, align 4
  store i32 1, ptr %21, align 4
  br label %98

73:                                               ; preds = %69
  %74 = load i32, ptr %14, align 4, !tbaa !11
  %75 = load ptr, ptr %17, align 8, !tbaa !13
  store i32 %74, ptr %75, align 4, !tbaa !11
  %76 = load i32, ptr %20, align 4, !tbaa !11
  %77 = load i32, ptr %19, align 4, !tbaa !11
  %78 = icmp sgt i32 %76, %77
  br i1 %78, label %79, label %81

79:                                               ; preds = %73
  %80 = load i32, ptr %19, align 4, !tbaa !11
  store i32 %80, ptr %9, align 4
  store i32 1, ptr %21, align 4
  br label %98

81:                                               ; preds = %73
  br label %82

82:                                               ; preds = %81, %68
  call void @llvm.lifetime.start.p0(i64 4, ptr %22) #9
  call void @llvm.lifetime.start.p0(i64 4, ptr %23) #9
  %83 = load ptr, ptr %10, align 8, !tbaa !9
  %84 = load ptr, ptr %11, align 8, !tbaa !9
  %85 = load i32, ptr %19, align 4, !tbaa !11
  %86 = add nsw i32 %85, 1
  %87 = load ptr, ptr %15, align 8, !tbaa !9
  %88 = load ptr, ptr %16, align 8, !tbaa !9
  %89 = call noundef i32 %83(ptr noundef %84, i32 noundef %86, ptr noundef %87, ptr noundef %88, ptr noundef %22)
  store i32 %89, ptr %23, align 4, !tbaa !11
  %90 = load i32, ptr %22, align 4, !tbaa !11
  %91 = load i32, ptr %14, align 4, !tbaa !11
  %92 = icmp eq i32 %90, %91
  br i1 %92, label %93, label %95

93:                                               ; preds = %82
  %94 = load i32, ptr %23, align 4, !tbaa !11
  store i32 %94, ptr %9, align 4
  store i32 1, ptr %21, align 4
  br label %97

95:                                               ; preds = %82
  %96 = load i32, ptr %19, align 4, !tbaa !11
  store i32 %96, ptr %9, align 4
  store i32 1, ptr %21, align 4
  br label %97

97:                                               ; preds = %95, %93
  call void @llvm.lifetime.end.p0(i64 4, ptr %23) #9
  call void @llvm.lifetime.end.p0(i64 4, ptr %22) #9
  br label %98

98:                                               ; preds = %97, %79, %72, %66, %55
  call void @llvm.lifetime.end.p0(i64 4, ptr %20) #9
  call void @llvm.lifetime.end.p0(i64 4, ptr %19) #9
  call void @llvm.lifetime.end.p0(i64 4, ptr %18) #9
  br label %99

99:                                               ; preds = %98, %26
  %100 = load i32, ptr %9, align 4
  ret i32 %100
}

; Function Attrs: mustprogress uwtable
define i32 @ucptrie_getRange_77(ptr noundef %0, i32 noundef %1, i32 noundef %2, i32 noundef %3, ptr noundef %4, ptr noundef %5, ptr noundef %6) #0 {
  %8 = alloca ptr, align 8
  %9 = alloca i32, align 4
  %10 = alloca i32, align 4
  %11 = alloca i32, align 4
  %12 = alloca ptr, align 8
  %13 = alloca ptr, align 8
  %14 = alloca ptr, align 8
  store ptr %0, ptr %8, align 8, !tbaa !38
  store i32 %1, ptr %9, align 4, !tbaa !11
  store i32 %2, ptr %10, align 4, !tbaa !48
  store i32 %3, ptr %11, align 4, !tbaa !11
  store ptr %4, ptr %12, align 8, !tbaa !9
  store ptr %5, ptr %13, align 8, !tbaa !9
  store ptr %6, ptr %14, align 8, !tbaa !13
  %15 = load ptr, ptr %8, align 8, !tbaa !38
  %16 = load i32, ptr %9, align 4, !tbaa !11
  %17 = load i32, ptr %10, align 4, !tbaa !48
  %18 = load i32, ptr %11, align 4, !tbaa !11
  %19 = load ptr, ptr %12, align 8, !tbaa !9
  %20 = load ptr, ptr %13, align 8, !tbaa !9
  %21 = load ptr, ptr %14, align 8, !tbaa !13
  %22 = call i32 @ucptrie_internalGetRange_77(ptr noundef @_ZN12_GLOBAL__N_18getRangeEPKviPFjS1_jES1_Pj, ptr noundef %15, i32 noundef %16, i32 noundef %17, i32 noundef %18, ptr noundef %19, ptr noundef %20, ptr noundef %21)
  ret i32 %22
}

; Function Attrs: mustprogress uwtable
define i32 @ucpmap_getRange_77(ptr noundef %0, i32 noundef %1, i32 noundef %2, i32 noundef %3, ptr noundef %4, ptr noundef %5, ptr noundef %6) #0 {
  %8 = alloca ptr, align 8
  %9 = alloca i32, align 4
  %10 = alloca i32, align 4
  %11 = alloca i32, align 4
  %12 = alloca ptr, align 8
  %13 = alloca ptr, align 8
  %14 = alloca ptr, align 8
  store ptr %0, ptr %8, align 8, !tbaa !58
  store i32 %1, ptr %9, align 4, !tbaa !11
  store i32 %2, ptr %10, align 4, !tbaa !48
  store i32 %3, ptr %11, align 4, !tbaa !11
  store ptr %4, ptr %12, align 8, !tbaa !9
  store ptr %5, ptr %13, align 8, !tbaa !9
  store ptr %6, ptr %14, align 8, !tbaa !13
  %15 = load ptr, ptr %8, align 8, !tbaa !58
  %16 = load i32, ptr %9, align 4, !tbaa !11
  %17 = load i32, ptr %10, align 4, !tbaa !48
  %18 = load i32, ptr %11, align 4, !tbaa !11
  %19 = load ptr, ptr %12, align 8, !tbaa !9
  %20 = load ptr, ptr %13, align 8, !tbaa !9
  %21 = load ptr, ptr %14, align 8, !tbaa !13
  %22 = call i32 @ucptrie_getRange_77(ptr noundef %15, i32 noundef %16, i32 noundef %17, i32 noundef %18, ptr noundef %19, ptr noundef %20, ptr noundef %21)
  ret i32 %22
}